target datalayout = "e-m:e-p270:32:32-p271:32:32-p272:64:64-i64:64-i128:128-f80:128-n8:16:32:64-S128"
target triple = "x86_64-pc-linux-gnu"

%struct._GByteArray = type { ptr, i32 }
%struct.ieee802154_key_t = type { ptr, i32, i32, [16 x i8], [16 x i8] }

@.str.365 = private unnamed_addr constant [7 x i8] c"Thread\00", align 1
@thread_use_pan_id_in_key = internal global i8 0, align 1

; Function Attrs: alwaysinline nounwind
define internal ptr @memcpy.inline(ptr noalias %0, ptr noalias %1, i64 %2) #4 {
  %4 = alloca ptr, align 8
  %5 = alloca ptr, align 8
  %6 = alloca i64, align 8
  store ptr %0, ptr %4, align 8
  store ptr %1, ptr %5, align 8
  store i64 %2, ptr %6, align 8
  %7 = load ptr, ptr %4, align 8
  %8 = load ptr, ptr %5, align 8
  %9 = load i64, ptr %6, align 8
  %10 = load ptr, ptr %4, align 8
  %11 = call i64 @llvm.objectsize.i64.p0(ptr %10, i1 false, i1 true, i1 true)
  %12 = call ptr @__memcpy_chk(ptr noundef %7, ptr noundef %8, i64 noundef %9, i64 noundef %11) #9
  ret ptr %12
}

; Function Attrs: null_pointer_is_valid sspstrong uwtable
define internal void @create_thread_temp_keys(ptr noundef %0, i16 noundef zeroext %1, ptr noundef %2, ptr noundef %3, ptr noundef %4) #0 {
  %6 = alloca ptr, align 8
  %7 = alloca i16, align 2
  %8 = alloca ptr, align 8
  %9 = alloca ptr, align 8
  %10 = alloca ptr, align 8
  %11 = alloca ptr, align 8
  %12 = alloca [10 x i8], align 1
  %13 = alloca i8, align 1
  %14 = alloca i8, align 1
  %15 = alloca i8, align 1
  %16 = alloca [32 x i8], align 16
  store ptr %0, ptr %6, align 8
  store i16 %1, ptr %7, align 2
  store ptr %2, ptr %8, align 8
  store ptr %3, ptr %9, align 8
  store ptr %4, ptr %10, align 8
  call void @llvm.lifetime.start.p0(i64 8, ptr %11) #9
  call void @llvm.lifetime.start.p0(i64 10, ptr %12) #9
  call void @llvm.lifetime.start.p0(i64 1, ptr %13) #9
  call void @llvm.lifetime.start.p0(i64 1, ptr %14) #9
  call void @llvm.lifetime.start.p0(i64 1, ptr %15) #9
  store i8 1, ptr %15, align 1
  %17 = call ptr @g_byte_array_new()
  store ptr %17, ptr %11, align 8
  %18 = load ptr, ptr %8, align 8
  %19 = getelementptr inbounds nuw %struct.ieee802154_key_t, ptr %18, i32 0, i32 0
  %20 = load ptr, ptr %19, align 8
  %21 = load ptr, ptr %11, align 8
  %22 = call zeroext i1 @hex_str_to_bytes(ptr noundef %20, ptr noundef %21, i1 noundef zeroext false)
  %23 = zext i1 %22 to i8
  store i8 %23, ptr %13, align 1
  %24 = load i8, ptr %13, align 1, !range !21, !noundef !22
  %25 = trunc i8 %24 to i1
  br i1 %25, label %26, label %31

26:                                               ; preds = %5
  %27 = load ptr, ptr %11, align 8
  %28 = getelementptr inbounds nuw %struct._GByteArray, ptr %27, i32 0, i32 1
  %29 = load i32, ptr %28, align 8
  %30 = icmp uge i32 %29, 16
  br label %31

31:                                               ; preds = %26, %5
  %32 = phi i1 [ false, %5 ], [ %30, %26 ]
  %33 = zext i1 %32 to i8
  store i8 %33, ptr %14, align 1
  %34 = load i8, ptr %14, align 1, !range !21, !noundef !22
  %35 = trunc i8 %34 to i1
  br i1 %35, label %36, label %121

36:                                               ; preds = %31
  %37 = load i8, ptr @thread_use_pan_id_in_key, align 1, !range !21, !noundef !22
  %38 = trunc i8 %37 to i1
  br i1 %38, label %39, label %56

39:                                               ; preds = %36
  %40 = load i16, ptr %7, align 2
  %41 = zext i16 %40 to i32
  %42 = and i32 %41, 255
  %43 = trunc i32 %42 to i8
  %44 = load ptr, ptr %11, align 8
  %45 = getelementptr inbounds nuw %struct._GByteArray, ptr %44, i32 0, i32 0
  %46 = load ptr, ptr %45, align 8
  %47 = getelementptr i8, ptr %46, i64 0
  store i8 %43, ptr %47, align 1
  %48 = load i16, ptr %7, align 2
  %49 = zext i16 %48 to i32
  %50 = ashr i32 %49, 8
  %51 = trunc i32 %50 to i8
  %52 = load ptr, ptr %11, align 8
  %53 = getelementptr inbounds nuw %struct._GByteArray, ptr %52, i32 0, i32 0
  %54 = load ptr, ptr %53, align 8
  %55 = getelementptr i8, ptr %54, i64 1
  store i8 %51, ptr %55, align 1
  br label %56

56:                                               ; preds = %39, %36
  %57 = load ptr, ptr %8, align 8
  %58 = getelementptr inbounds nuw %struct.ieee802154_key_t, ptr %57, i32 0, i32 2
  %59 = load i32, ptr %58, align 4
  %60 = icmp ne i32 %59, 0
  br i1 %60, label %61, label %98

61:                                               ; preds = %56
  call void @llvm.lifetime.start.p0(i64 32, ptr %16) #9
  %62 = load ptr, ptr %8, align 8
  %63 = getelementptr inbounds nuw %struct.ieee802154_key_t, ptr %62, i32 0, i32 2
  %64 = load i32, ptr %63, align 4
  %65 = icmp eq i32 %64, 2
  br i1 %65, label %66, label %97

66:                                               ; preds = %61
  %67 = getelementptr inbounds [10 x i8], ptr %12, i64 0, i64 0
  %68 = load ptr, ptr %6, align 8
  %69 = getelementptr inbounds nuw %struct._GByteArray, ptr %68, i32 0, i32 0
  %70 = load ptr, ptr %69, align 8
  %71 = call ptr @memcpy.inline(ptr noundef %67, ptr noundef %70, i64 noundef 4) #9
  %72 = getelementptr [10 x i8], ptr %12, i64 0, i64 4
  %73 = call ptr @memcpy.inline(ptr noundef %72, ptr noundef @.str.365, i64 noundef 6) #9
  %74 = getelementptr inbounds [32 x i8], ptr %16, i64 0, i64 0
  %75 = getelementptr inbounds [10 x i8], ptr %12, i64 0, i64 0
  %76 = load ptr, ptr %11, align 8
  %77 = getelementptr inbounds nuw %struct._GByteArray, ptr %76, i32 0, i32 0
  %78 = load ptr, ptr %77, align 8
  %79 = call i32 @ws_hmac_buffer(i32 noundef 8, ptr noundef %74, ptr noundef %75, i64 noundef 10, ptr noundef %78, i64 noundef 16)
  %80 = icmp ne i32 %79, 0
  br i1 %80, label %96, label %81

81:                                               ; preds = %66
  %82 = load ptr, ptr %9, align 8
  %83 = icmp ne ptr %82, null
  br i1 %83, label %84, label %88

84:                                               ; preds = %81
  %85 = load ptr, ptr %9, align 8
  %86 = getelementptr [32 x i8], ptr %16, i64 0, i64 16
  %87 = call ptr @memcpy.inline(ptr noundef %85, ptr noundef %86, i64 noundef 16) #9
  br label %88

88:                                               ; preds = %84, %81
  %89 = load ptr, ptr %10, align 8
  %90 = icmp ne ptr %89, null
  br i1 %90, label %91, label %95

91:                                               ; preds = %88
  %92 = load ptr, ptr %10, align 8
  %93 = getelementptr inbounds [32 x i8], ptr %16, i64 0, i64 0
  %94 = call ptr @memcpy.inline(ptr noundef %92, ptr noundef %93, i64 noundef 16) #9
  br label %95

95:                                               ; preds = %91, %88
  store i8 0, ptr %15, align 1
  br label %96

96:                                               ; preds = %95, %66
  br label %97

97:                                               ; preds = %96, %61
  call void @llvm.lifetime.end.p0(i64 32, ptr %16) #9
  br label %98

98:                                               ; preds = %97, %56
  %99 = load i8, ptr %15, align 1, !range !21, !noundef !22
  %100 = trunc i8 %99 to i1
  br i1 %100, label %101, label %120

101:                                              ; preds = %98
  %102 = load ptr, ptr %9, align 8
  %103 = icmp ne ptr %102, null
  br i1 %103, label %104, label %110

104:                                              ; preds = %101
  %105 = load ptr, ptr %9, align 8
  %106 = load ptr, ptr %11, align 8
  %107 = getelementptr inbounds nuw %struct._GByteArray, ptr %106, i32 0, i32 0
  %108 = load ptr, ptr %107, align 8
  %109 = call ptr @memcpy.inline(ptr noundef %105, ptr noundef %108, i64 noundef 16) #9
  br label %110

110:                                              ; preds = %104, %101
  %111 = load ptr, ptr %10, align 8
  %112 = icmp ne ptr %111, null
  br i1 %112, label %113, label %119

113:                                              ; preds = %110
  %114 = load ptr, ptr %10, align 8
  %115 = load ptr, ptr %11, align 8
  %116 = getelementptr inbounds nuw %struct._GByteArray, ptr %115, i32 0, i32 0
  %117 = load ptr, ptr %116, align 8
  %118 = call ptr @memcpy.inline(ptr noundef %114, ptr noundef %117, i64 noundef 16) #9
  br label %119

119:                                              ; preds = %113, %110
  br label %120

120:                                              ; preds = %119, %98
  br label %121

121:                                              ; preds = %120, %31
  %122 = load ptr, ptr %11, align 8
  %123 = call ptr @g_byte_array_free(ptr noundef %122, i32 noundef 1)
  call void @llvm.lifetime.end.p0(i64 1, ptr %15) #9
  call void @llvm.lifetime.end.p0(i64 1, ptr %14) #9
  call void @llvm.lifetime.end.p0(i64 1, ptr %13) #9
  call void @llvm.lifetime.end.p0(i64 10, ptr %12) #9
  call void @llvm.lifetime.end.p0(i64 8, ptr %11) #9
  ret void
}