; Function Attrs: null_pointer_is_valid sspstrong uwtable
define internal fastcc void @create_thread_temp_keys(ptr noundef nonnull readonly captures(none) %0, i16 noundef zeroext %1, ptr noundef readonly captures(none) %2, ptr noundef %3, ptr noundef %4) unnamed_addr #0 {
  %6 = alloca [10 x i8], align 4
  %7 = alloca [32 x i8], align 16
  call void @llvm.lifetime.start.p0(i64 10, ptr nonnull %6) #9
  %8 = tail call ptr @g_byte_array_new()
  %9 = load ptr, ptr %2, align 8
  %10 = tail call zeroext i1 @hex_str_to_bytes(ptr noundef %9, ptr noundef %8, i1 noundef zeroext false)
  br i1 %10, label %11, label %.critedge

11:                                               ; preds = %5
  %12 = getelementptr inbounds nuw i8, ptr %8, i64 8
  %13 = load i32, ptr %12, align 8
  %14 = icmp ugt i32 %13, 15
  br i1 %14, label %15, label %.critedge

15:                                               ; preds = %11
  %16 = load i8, ptr @thread_use_pan_id_in_key, align 1, !range !25, !noundef !26
  %17 = trunc nuw i8 %16 to i1
  br i1 %17, label %18, label %25

18:                                               ; preds = %15
  %19 = trunc i16 %1 to i8
  %20 = load ptr, ptr %8, align 8
  store i8 %19, ptr %20, align 1
  %21 = lshr i16 %1, 8
  %22 = trunc nuw i16 %21 to i8
  %23 = load ptr, ptr %8, align 8
  %24 = getelementptr i8, ptr %23, i64 1
  store i8 %22, ptr %24, align 1
  br label %25

25:                                               ; preds = %18, %15
  %26 = getelementptr inbounds nuw i8, ptr %2, i64 12
  %27 = load i32, ptr %26, align 4
  %.not = icmp eq i32 %27, 0
  br i1 %.not, label %.critedge34, label %28

28:                                               ; preds = %25
  call void @llvm.lifetime.start.p0(i64 32, ptr nonnull %7) #9
  %29 = icmp eq i32 %27, 2
  br i1 %29, label %30, label %.critedge36

30:                                               ; preds = %28
  %31 = load ptr, ptr %0, align 8
  %32 = load i32, ptr %31, align 1
  store i32 %32, ptr %6, align 4
  %33 = getelementptr inbounds nuw i8, ptr %6, i64 4
  call void @llvm.memcpy.p0.p0.i64(ptr noundef nonnull align 4 dereferenceable(6) %33, ptr noundef nonnull align 1 dereferenceable(6) @.str.365, i64 noundef 6, i1 noundef false) #9
  %34 = load ptr, ptr %8, align 8
  %35 = call i32 @ws_hmac_buffer(i32 noundef 8, ptr noundef nonnull %7, ptr noundef nonnull %6, i64 noundef 10, ptr noundef %34, i64 noundef 16)
  %.not28 = icmp eq i32 %35, 0
  br i1 %.not28, label %36, label %.critedge36

36:                                               ; preds = %30
  %.not29 = icmp eq ptr %3, null
  br i1 %.not29, label %39, label %37

37:                                               ; preds = %36
  %38 = getelementptr inbounds nuw i8, ptr %7, i64 16
  call void @llvm.memcpy.p0.p0.i64(ptr noundef nonnull align 1 dereferenceable(16) %3, ptr noundef nonnull align 16 dereferenceable(16) %38, i64 noundef 16, i1 noundef false) #9
  br label %39

39:                                               ; preds = %37, %36
  %.not30 = icmp eq ptr %4, null
  br i1 %.not30, label %41, label %40

40:                                               ; preds = %39
  call void @llvm.memcpy.p0.p0.i64(ptr noundef nonnull align 1 dereferenceable(16) %4, ptr noundef nonnull align 16 dereferenceable(16) %7, i64 noundef 16, i1 noundef false) #9
  br label %41

41:                                               ; preds = %39, %40
  call void @llvm.lifetime.end.p0(i64 32, ptr nonnull %7) #9
  br label %.critedge

.critedge36:                                      ; preds = %28, %30
  call void @llvm.lifetime.end.p0(i64 32, ptr nonnull %7) #9
  br label %.critedge34

.critedge34:                                      ; preds = %25, %.critedge36
  %.not31 = icmp eq ptr %3, null
  br i1 %.not31, label %44, label %42

42:                                               ; preds = %.critedge34
  %43 = load ptr, ptr %8, align 8
  call void @llvm.memcpy.p0.p0.i64(ptr noundef nonnull align 1 dereferenceable(16) %3, ptr noundef align 1 dereferenceable(16) %43, i64 noundef 16, i1 noundef false) #9
  br label %44

44:                                               ; preds = %42, %.critedge34
  %.not32 = icmp eq ptr %4, null
  br i1 %.not32, label %.critedge, label %45

45:                                               ; preds = %44
  %46 = load ptr, ptr %8, align 8
  call void @llvm.memcpy.p0.p0.i64(ptr noundef nonnull align 1 dereferenceable(16) %4, ptr noundef align 1 dereferenceable(16) %46, i64 noundef 16, i1 noundef false) #9
  br label %.critedge

.critedge:                                        ; preds = %41, %5, %45, %44, %11
  %47 = call ptr @g_byte_array_free(ptr noundef %8, i32 noundef 1)
  call void @llvm.lifetime.end.p0(i64 10, ptr nonnull %6) #9
  ret void
}